; Function Attrs: mustprogress nounwind uwtable
define internal fastcc void @_ZNSt8_Rb_treeIN12_GLOBAL__N_110ExtSigSpecESt4pairIKS1_St3setIPN5Yosys5RTLIL4CellESt4lessIS8_ESaIS8_EEESt10_Select1stISD_ES9_IS1_ESaISD_EE10_Auto_nodeD2Ev(ptr %.8.val) unnamed_addr #3 align 2 personality ptr @__gxx_personality_v0 {
  %.not = icmp eq ptr %.8.val, null
  br i1 %.not, label %9, label %1

1:                                                ; preds = %0
  %2 = getelementptr inbounds i8, ptr %.8.val, i64 168
  %3 = getelementptr inbounds i8, ptr %.8.val, i64 184
  %4 = load ptr, ptr %3, align 8
  invoke void @_ZNSt8_Rb_treeIPN5Yosys5RTLIL4CellES3_St9_IdentityIS3_ESt4lessIS3_ESaIS3_EE8_M_eraseEPSt13_Rb_tree_nodeIS3_E(ptr noundef nonnull align 8 dereferenceable(48) %2, ptr noundef %4)
          to label %_ZNSt8_Rb_treeIN12_GLOBAL__N_110ExtSigSpecESt4pairIKS1_St3setIPN5Yosys5RTLIL4CellESt4lessIS8_ESaIS8_EEESt10_Select1stISD_ES9_IS1_ESaISD_EE12_M_drop_nodeEPSt13_Rb_tree_nodeISD_E.exit unwind label %5

5:                                                ; preds = %1
  %6 = landingpad { ptr, i32 }
          catch ptr null
  %7 = extractvalue { ptr, i32 } %6, 0
  tail call void @__clang_call_terminate(ptr %7) #18
  unreachable

_ZNSt8_Rb_treeIN12_GLOBAL__N_110ExtSigSpecESt4pairIKS1_St3setIPN5Yosys5RTLIL4CellESt4lessIS8_ESaIS8_EEESt10_Select1stISD_ES9_IS1_ESaISD_EE12_M_drop_nodeEPSt13_Rb_tree_nodeISD_E.exit: ; preds = %1
  %8 = getelementptr inbounds i8, ptr %.8.val, i64 32
  tail call fastcc void @_ZN12_GLOBAL__N_110ExtSigSpecD2Ev(ptr noundef nonnull align 8 dereferenceable(136) %8) #19
  tail call void @_ZdlPv(ptr noundef nonnull %.8.val) #20
  br label %9

9:                                                ; preds = %_ZNSt8_Rb_treeIN12_GLOBAL__N_110ExtSigSpecESt4pairIKS1_St3setIPN5Yosys5RTLIL4CellESt4lessIS8_ESaIS8_EEESt10_Select1stISD_ES9_IS1_ESaISD_EE12_M_drop_nodeEPSt13_Rb_tree_nodeISD_E.exit, %0
  ret void
}